; Function Attrs: null_pointer_is_valid sspstrong uwtable
define internal noundef zeroext i1 @dissect_xcsl_tcp_heur(ptr noundef %0, ptr noundef readonly captures(none) %1, ptr noundef %2, ptr readnone captures(none) %3) #0 {
  %5 = alloca i8, align 1
  %6 = tail call i32 @tvb_captured_length(ptr noundef %0)
  %7 = icmp ugt i32 %6, 4
  br i1 %7, label %8, label %97

8:                                                ; preds = %4
  %9 = getelementptr inbounds nuw i8, ptr %1, i64 408
  %10 = load ptr, ptr %9, align 8
  %11 = tail call ptr @tvb_get_string_enc(ptr noundef %10, ptr noundef %0, i32 noundef 0, i32 noundef 5, i32 noundef 0)
  %12 = tail call i32 @strncmp(ptr noundef %11, ptr noundef nonnull dereferenceable(5) @.str.14, i64 noundef 4) #4
  %13 = icmp eq i32 %12, 0
  br i1 %13, label %14, label %97

14:                                               ; preds = %8
  %15 = getelementptr i8, ptr %11, i64 4
  %16 = load i8, ptr %15, align 1
  switch i8 %16, label %97 [
    i8 59, label %17
    i8 45, label %17
  ]

17:                                               ; preds = %14, %14
  call void @llvm.lifetime.start.p0(i64 1, ptr nonnull %5) #5
  %18 = getelementptr inbounds nuw i8, ptr %1, i64 8
  %19 = load ptr, ptr %18, align 8
  tail call void @col_set_str(ptr noundef %19, i32 noundef 35, ptr noundef nonnull @.str.19)
  %20 = load ptr, ptr %18, align 8
  tail call void @col_clear(ptr noundef %20, i32 noundef 25)
  %.not.i = icmp eq ptr %2, null
  br i1 %.not.i, label %26, label %21

21:                                               ; preds = %17
  %22 = load i32, ptr @proto_xcsl, align 4
  %23 = tail call ptr @proto_tree_add_item(ptr noundef nonnull %2, i32 noundef %22, ptr noundef %0, i32 noundef 0, i32 noundef -1, i32 noundef 0)
  %24 = load i32, ptr @ett_xcsl, align 4
  %25 = tail call ptr @proto_item_add_subtree(ptr noundef %23, i32 noundef %24)
  br label %26

26:                                               ; preds = %21, %17
  %.071.i = phi ptr [ %25, %21 ], [ null, %17 ]
  %27 = tail call i32 @tvb_reported_length_remaining(ptr noundef %0, i32 noundef 0)
  %28 = icmp sgt i32 %27, 0
  br i1 %28, label %.lr.ph.lr.ph.i, label %dissect_xcsl_tcp.exit

.lr.ph.lr.ph.i:                                   ; preds = %26
  %29 = load ptr, ptr @g_ascii_table, align 8
  br label %.lr.ph.i

.lr.ph.i:                                         ; preds = %.outer.i, %.lr.ph.lr.ph.i
  %30 = phi i32 [ %27, %.lr.ph.lr.ph.i ], [ %95, %.outer.i ]
  %.0.ph88.i = phi i32 [ 0, %.lr.ph.lr.ph.i ], [ %93, %.outer.i ]
  %.070.ph87.i = phi i8 [ 0, %.lr.ph.lr.ph.i ], [ %94, %.outer.i ]
  %.074.ph86.i = phi i1 [ false, %.lr.ph.lr.ph.i ], [ %.1.i, %.outer.i ]
  %.075.ph85.i = phi i8 [ 0, %.lr.ph.lr.ph.i ], [ %.176.i, %.outer.i ]
  br label %31

31:                                               ; preds = %38, %.lr.ph.i
  %32 = phi i32 [ %30, %.lr.ph.i ], [ %40, %38 ]
  %.084.i = phi i32 [ %.0.ph88.i, %.lr.ph.i ], [ %39, %38 ]
  %33 = call i32 @tvb_ws_mempbrk_pattern_uint8(ptr noundef %0, i32 noundef %.084.i, i32 noundef %32, ptr noundef nonnull @pbrk_param_end, ptr noundef null)
  %34 = icmp eq i32 %33, -1
  %35 = add i32 %.084.i, %32
  %36 = sub i32 %33, %.084.i
  %.073.i = select i1 %34, i32 %32, i32 %36
  %.072.i = select i1 %34, i32 %35, i32 %33
  %37 = icmp eq i32 %.073.i, 0
  br i1 %37, label %38, label %42

38:                                               ; preds = %31
  %39 = add i32 %.072.i, 1
  %40 = call i32 @tvb_reported_length_remaining(ptr noundef %0, i32 noundef %39)
  %41 = icmp sgt i32 %40, 0
  br i1 %41, label %31, label %dissect_xcsl_tcp.exit, !llvm.loop !6

42:                                               ; preds = %31
  %43 = load ptr, ptr %9, align 8
  %44 = call ptr @tvb_get_string_enc(ptr noundef %43, ptr noundef %0, i32 noundef %.084.i, i32 noundef %.073.i, i32 noundef 0)
  switch i8 %.070.ph87.i, label %81 [
    i8 0, label %45
    i8 1, label %48
    i8 2, label %57
  ]

45:                                               ; preds = %42
  %46 = load i32, ptr @hf_xcsl_protocol_version, align 4
  %47 = call ptr @proto_tree_add_item(ptr noundef %.071.i, i32 noundef %46, ptr noundef %0, i32 noundef %.084.i, i32 noundef %.073.i, i32 noundef 0)
  br label %.outer.i

48:                                               ; preds = %42
  %49 = load i8, ptr %44, align 1
  %50 = zext i8 %49 to i64
  %51 = getelementptr i16, ptr %29, i64 %50
  %52 = load i16, ptr %51, align 2
  %53 = and i16 %52, 8
  %.not82.i = icmp eq i16 %53, 0
  %hf_xcsl_information.val.i = load i32, ptr @hf_xcsl_information, align 4
  %hf_xcsl_transaction_id.val.i = load i32, ptr @hf_xcsl_transaction_id, align 4
  %54 = select i1 %.not82.i, i32 %hf_xcsl_information.val.i, i32 %hf_xcsl_transaction_id.val.i
  %55 = call ptr @proto_tree_add_item(ptr noundef %.071.i, i32 noundef %54, ptr noundef %0, i32 noundef %.084.i, i32 noundef %.073.i, i32 noundef 0)
  %56 = load ptr, ptr %18, align 8
  call void (ptr, i32, ptr, ...) @col_append_fstr(ptr noundef %56, i32 noundef 25, ptr noundef nonnull @.str.20, ptr noundef %44)
  br label %.outer.i

57:                                               ; preds = %42
  %58 = load i8, ptr %44, align 1
  %59 = zext i8 %58 to i64
  %60 = getelementptr i16, ptr %29, i64 %59
  %61 = load i16, ptr %60, align 2
  %62 = and i16 %61, 8
  %.not80.i = icmp eq i16 %62, 0
  br i1 %.not80.i, label %77, label %63

63:                                               ; preds = %57
  store i8 5, ptr %5, align 1
  %64 = call zeroext i1 @ws_strtou8(ptr noundef %44, ptr noundef null, ptr noundef nonnull %5)
  %65 = load i8, ptr %5, align 1
  %66 = icmp ugt i8 %65, 8
  br i1 %66, label %67, label %68

67:                                               ; preds = %63
  store i8 5, ptr %5, align 1
  br label %68

68:                                               ; preds = %67, %63
  %69 = phi i8 [ 5, %67 ], [ %65, %63 ]
  %70 = zext nneg i8 %69 to i32
  %71 = call ptr @val_to_str(i32 noundef %70, ptr noundef nonnull @xcsl_action_vals, ptr noundef nonnull @.str.21)
  %72 = load i32, ptr @hf_xcsl_result, align 4
  %73 = call ptr @proto_tree_add_item(ptr noundef %.071.i, i32 noundef %72, ptr noundef %0, i32 noundef %.084.i, i32 noundef %.073.i, i32 noundef 0)
  call void (ptr, ptr, ...) @proto_item_append_text(ptr noundef %73, ptr noundef nonnull @.str.22, ptr noundef %71)
  %74 = load i8, ptr %5, align 1
  %.not81.i = icmp eq i8 %74, 0
  br i1 %.not81.i, label %.outer.i, label %75

75:                                               ; preds = %68
  %76 = load ptr, ptr %18, align 8
  call void (ptr, i32, ptr, ...) @col_append_fstr(ptr noundef %76, i32 noundef 25, ptr noundef nonnull @.str.23, ptr noundef %71)
  br label %.outer.i

77:                                               ; preds = %57
  %78 = load i32, ptr @hf_xcsl_command, align 4
  %79 = call ptr @proto_tree_add_item(ptr noundef %.071.i, i32 noundef %78, ptr noundef %0, i32 noundef %.084.i, i32 noundef %.073.i, i32 noundef 0)
  %80 = load ptr, ptr %18, align 8
  call void (ptr, i32, ptr, ...) @col_append_fstr(ptr noundef %80, i32 noundef 25, ptr noundef nonnull @.str.20, ptr noundef %44)
  br label %.outer.i

81:                                               ; preds = %42
  %82 = load i32, ptr @hf_xcsl_parameter, align 4
  %83 = call ptr @proto_tree_add_item(ptr noundef %.071.i, i32 noundef %82, ptr noundef %0, i32 noundef %.084.i, i32 noundef %.073.i, i32 noundef 0)
  br i1 %.074.ph86.i, label %84, label %86

84:                                               ; preds = %81
  %85 = load ptr, ptr %18, align 8
  call void (ptr, i32, ptr, ...) @col_append_fstr(ptr noundef %85, i32 noundef 25, ptr noundef nonnull @.str.24, ptr noundef %44)
  br label %91

86:                                               ; preds = %81
  %87 = icmp eq i8 %.075.ph85.i, 0
  %88 = load ptr, ptr %18, align 8
  br i1 %87, label %89, label %90

89:                                               ; preds = %86
  call void (ptr, i32, ptr, ...) @col_append_fstr(ptr noundef %88, i32 noundef 25, ptr noundef nonnull @.str.25, ptr noundef %44)
  br label %91

90:                                               ; preds = %86
  call void (ptr, i32, ptr, ...) @col_append_fstr(ptr noundef %88, i32 noundef 25, ptr noundef nonnull @.str.24, ptr noundef %44)
  br label %91

91:                                               ; preds = %90, %89, %84
  %92 = add i8 %.075.ph85.i, 1
  br label %.outer.i

.outer.i:                                         ; preds = %91, %77, %75, %68, %48, %45
  %.176.i = phi i8 [ %92, %91 ], [ %.075.ph85.i, %77 ], [ %.075.ph85.i, %48 ], [ %.075.ph85.i, %45 ], [ %.075.ph85.i, %75 ], [ %.075.ph85.i, %68 ]
  %.1.i = phi i1 [ %.074.ph86.i, %91 ], [ true, %77 ], [ %.074.ph86.i, %48 ], [ %.074.ph86.i, %45 ], [ false, %75 ], [ false, %68 ]
  %93 = add i32 %.072.i, 1
  %94 = add i8 %.070.ph87.i, 1
  %95 = call i32 @tvb_reported_length_remaining(ptr noundef %0, i32 noundef %93)
  %96 = icmp sgt i32 %95, 0
  br i1 %96, label %.lr.ph.i, label %dissect_xcsl_tcp.exit, !llvm.loop !6

dissect_xcsl_tcp.exit:                            ; preds = %.outer.i, %38, %26
  call void @llvm.lifetime.end.p0(i64 1, ptr nonnull %5) #5
  br label %97

97:                                               ; preds = %4, %8, %14, %dissect_xcsl_tcp.exit
  %.0 = phi i1 [ true, %dissect_xcsl_tcp.exit ], [ false, %14 ], [ false, %8 ], [ false, %4 ]
  ret i1 %.0
}